; Function Attrs: alwaysinline norecurse nounwind uwtable
define internal void @_ZN4ncnnL4lstmERKNS_3MatERS0_iS2_S2_S2_S2_S3_S3_RKNS_6OptionE.omp_outlined.3(ptr noalias noundef readonly captures(none) %0, ptr noalias readnone captures(none) %1, ptr noundef nonnull readonly align 4 captures(none) dereferenceable(4) %2, ptr noundef nonnull readonly align 4 captures(none) dereferenceable(4) %3, ptr noundef nonnull readonly align 8 captures(none) dereferenceable(72) %4, ptr noundef nonnull readonly align 8 captures(none) dereferenceable(8) %5, ptr noundef nonnull readonly align 4 captures(none) dereferenceable(4) %6, ptr noundef nonnull readonly align 8 captures(none) dereferenceable(8) %7, ptr noundef nonnull readonly align 8 captures(none) dereferenceable(8) %8, ptr noundef nonnull readonly align 8 captures(none) dereferenceable(8) %9) #8 {
  %11 = alloca i32, align 4
  %12 = alloca i32, align 4
  %13 = alloca i32, align 4
  %14 = alloca i32, align 4
  %15 = load i32, ptr %3, align 4, !tbaa !35
  %16 = load i32, ptr %2, align 4, !tbaa !35
  %17 = icmp slt i32 %15, %16
  br i1 %17, label %18, label %73

18:                                               ; preds = %10
  %19 = xor i32 %15, -1
  %20 = add i32 %16, %19
  call void @llvm.lifetime.start.p0(i64 4, ptr nonnull %11) #9
  store i32 0, ptr %11, align 4, !tbaa !35
  call void @llvm.lifetime.start.p0(i64 4, ptr nonnull %12) #9
  store i32 %20, ptr %12, align 4, !tbaa !35
  call void @llvm.lifetime.start.p0(i64 4, ptr nonnull %13) #9
  store i32 1, ptr %13, align 4, !tbaa !35
  call void @llvm.lifetime.start.p0(i64 4, ptr nonnull %14) #9
  store i32 0, ptr %14, align 4, !tbaa !35
  %21 = load i32, ptr %0, align 4, !tbaa !35
  call void @__kmpc_for_static_init_4u(ptr nonnull @1, i32 %21, i32 34, ptr nonnull %14, ptr nonnull %11, ptr nonnull %12, ptr nonnull %13, i32 1, i32 1)
  %22 = load i32, ptr %12, align 4, !tbaa !35
  %23 = call i32 @llvm.umin.i32(i32 %22, i32 %20)
  store i32 %23, ptr %12, align 4, !tbaa !35
  %24 = load i32, ptr %11, align 4, !tbaa !35
  %25 = add i32 %23, 1
  %26 = icmp ult i32 %24, %25
  br i1 %26, label %.lr.ph, label %._crit_edge

.lr.ph:                                           ; preds = %18
  %27 = load ptr, ptr %4, align 8, !tbaa !16
  %28 = getelementptr inbounds nuw i8, ptr %4, i64 44
  %29 = load i32, ptr %28, align 4, !tbaa !50
  %30 = sext i32 %29 to i64
  %31 = getelementptr inbounds nuw i8, ptr %4, i64 16
  %32 = load i64, ptr %31, align 8, !tbaa !47
  %factor.op.mul = mul i64 %32, %30
  %33 = load ptr, ptr %5, align 8, !tbaa !209
  %34 = load i32, ptr %6, align 4, !tbaa !35
  %35 = load i32, ptr %2, align 4, !tbaa !35
  %36 = icmp eq i32 %34, %35
  %37 = load ptr, ptr %9, align 8
  %38 = load ptr, ptr %7, align 8
  %39 = load ptr, ptr %8, align 8
  br label %40

40:                                               ; preds = %.lr.ph, %70
  %.045 = phi i32 [ %24, %.lr.ph ], [ %72, %70 ]
  %41 = add i32 %.045, %15
  %42 = sext i32 %41 to i64
  %.reass = mul i64 %factor.op.mul, %42
  %43 = getelementptr inbounds nuw i8, ptr %27, i64 %.reass
  %44 = load float, ptr %43, align 4, !tbaa !53
  %45 = getelementptr inbounds nuw i8, ptr %43, i64 4
  %46 = load float, ptr %45, align 4, !tbaa !53
  %47 = getelementptr inbounds nuw i8, ptr %43, i64 8
  %48 = load float, ptr %47, align 4, !tbaa !53
  %49 = getelementptr inbounds nuw i8, ptr %43, i64 12
  %50 = load float, ptr %49, align 4, !tbaa !53
  %51 = fneg fast float %44
  %52 = call fast float @llvm.exp.f32(float %51)
  %53 = fadd fast float %52, 1.000000e+00
  %54 = fneg fast float %46
  %55 = call fast float @llvm.exp.f32(float %54)
  %56 = fadd fast float %55, 1.000000e+00
  %57 = fneg fast float %48
  %58 = call fast float @llvm.exp.f32(float %57)
  %59 = fadd fast float %58, 1.000000e+00
  %60 = call fast float @llvm.tanh.f32(float %50)
  %61 = getelementptr inbounds float, ptr %33, i64 %42
  %62 = load float, ptr %61, align 4, !tbaa !53
  %63 = fdiv fast float %62, %56
  %64 = fdiv fast float %60, %53
  %65 = fadd fast float %63, %64
  %66 = call fast float @llvm.tanh.f32(float %65)
  %67 = fdiv fast float %66, %59
  store float %65, ptr %61, align 4, !tbaa !53
  br i1 %36, label %68, label %70

68:                                               ; preds = %40
  %69 = getelementptr inbounds float, ptr %38, i64 %42
  store float %67, ptr %69, align 4, !tbaa !53
  br label %70

70:                                               ; preds = %40, %68
  %.sink46 = phi ptr [ %39, %68 ], [ %37, %40 ]
  %71 = getelementptr inbounds float, ptr %.sink46, i64 %42
  store float %67, ptr %71, align 4, !tbaa !53
  %72 = add nuw i32 %.045, 1
  %exitcond.not = icmp eq i32 %.045, %23
  br i1 %exitcond.not, label %._crit_edge, label %40

._crit_edge:                                      ; preds = %70, %18
  call void @__kmpc_for_static_fini(ptr nonnull @1, i32 %21)
  call void @llvm.lifetime.end.p0(i64 4, ptr nonnull %14) #9
  call void @llvm.lifetime.end.p0(i64 4, ptr nonnull %13) #9
  call void @llvm.lifetime.end.p0(i64 4, ptr nonnull %12) #9
  call void @llvm.lifetime.end.p0(i64 4, ptr nonnull %11) #9
  br label %73

73:                                               ; preds = %._crit_edge, %10
  ret void
}